
Assingment_3.elf:     file format elf32-avr

Sections:
Idx Name          Size      VMA       LMA       File off  Algn
  0 .text         0000078a  00000000  00000000  00000074  2**1
                  CONTENTS, ALLOC, LOAD, READONLY, CODE
  1 .data         0000002c  00800060  0000078a  000007fe  2**0
                  CONTENTS, ALLOC, LOAD, DATA
  2 .comment      00000030  00000000  00000000  0000082a  2**0
                  CONTENTS, READONLY
  3 .note.gnu.avr.deviceinfo 0000003c  00000000  00000000  0000085c  2**2
                  CONTENTS, READONLY
  4 .debug_info   000004e6  00000000  00000000  00000898  2**0
                  CONTENTS, READONLY, DEBUGGING
  5 .debug_abbrev 000004a3  00000000  00000000  00000d7e  2**0
                  CONTENTS, READONLY, DEBUGGING
  6 .debug_line   00000115  00000000  00000000  00001221  2**0
                  CONTENTS, READONLY, DEBUGGING
  7 .debug_str    00000196  00000000  00000000  00001336  2**0
                  CONTENTS, READONLY, DEBUGGING

Disassembly of section .text:

00000000 <__vectors>:
   0:	0c 94 2a 00 	jmp	0x54	; 0x54 <__ctors_end>
   4:	0c 94 3f 00 	jmp	0x7e	; 0x7e <__bad_interrupt>
   8:	0c 94 3f 00 	jmp	0x7e	; 0x7e <__bad_interrupt>
   c:	0c 94 3f 00 	jmp	0x7e	; 0x7e <__bad_interrupt>
  10:	0c 94 3f 00 	jmp	0x7e	; 0x7e <__bad_interrupt>
  14:	0c 94 3f 00 	jmp	0x7e	; 0x7e <__bad_interrupt>
  18:	0c 94 3f 00 	jmp	0x7e	; 0x7e <__bad_interrupt>
  1c:	0c 94 3f 00 	jmp	0x7e	; 0x7e <__bad_interrupt>
  20:	0c 94 3f 00 	jmp	0x7e	; 0x7e <__bad_interrupt>
  24:	0c 94 3f 00 	jmp	0x7e	; 0x7e <__bad_interrupt>
  28:	0c 94 3f 00 	jmp	0x7e	; 0x7e <__bad_interrupt>
  2c:	0c 94 3f 00 	jmp	0x7e	; 0x7e <__bad_interrupt>
  30:	0c 94 3f 00 	jmp	0x7e	; 0x7e <__bad_interrupt>
  34:	0c 94 3f 00 	jmp	0x7e	; 0x7e <__bad_interrupt>
  38:	0c 94 3f 00 	jmp	0x7e	; 0x7e <__bad_interrupt>
  3c:	0c 94 3f 00 	jmp	0x7e	; 0x7e <__bad_interrupt>
  40:	0c 94 3f 00 	jmp	0x7e	; 0x7e <__bad_interrupt>
  44:	0c 94 3f 00 	jmp	0x7e	; 0x7e <__bad_interrupt>
  48:	0c 94 3f 00 	jmp	0x7e	; 0x7e <__bad_interrupt>
  4c:	0c 94 3f 00 	jmp	0x7e	; 0x7e <__bad_interrupt>
  50:	0c 94 3f 00 	jmp	0x7e	; 0x7e <__bad_interrupt>

00000054 <__ctors_end>:
  54:	11 24       	eor	r1, r1
  56:	1f be       	out	0x3f, r1	; 63
  58:	cf e5       	ldi	r28, 0x5F	; 95
  5a:	d8 e0       	ldi	r29, 0x08	; 8
  5c:	de bf       	out	0x3e, r29	; 62
  5e:	cd bf       	out	0x3d, r28	; 61

00000060 <__do_copy_data>:
  60:	10 e0       	ldi	r17, 0x00	; 0
  62:	a0 e6       	ldi	r26, 0x60	; 96
  64:	b0 e0       	ldi	r27, 0x00	; 0
  66:	ea e8       	ldi	r30, 0x8A	; 138
  68:	f7 e0       	ldi	r31, 0x07	; 7
  6a:	02 c0       	rjmp	.+4      	; 0x70 <__do_copy_data+0x10>
  6c:	05 90       	lpm	r0, Z+
  6e:	0d 92       	st	X+, r0
  70:	ac 38       	cpi	r26, 0x8C	; 140
  72:	b1 07       	cpc	r27, r17
  74:	d9 f7       	brne	.-10     	; 0x6c <__do_copy_data+0xc>
  76:	0e 94 2b 03 	call	0x656	; 0x656 <main>
  7a:	0c 94 c3 03 	jmp	0x786	; 0x786 <_exit>

0000007e <__bad_interrupt>:
  7e:	0c 94 00 00 	jmp	0	; 0x0 <__vectors>

00000082 <ADC_Init>:
  82:	3e 9a       	sbi	0x07, 6	; 7
  84:	3f 98       	cbi	0x07, 7	; 7
  86:	38 9a       	sbi	0x07, 0	; 7
  88:	3d 98       	cbi	0x07, 5	; 7
  8a:	35 9a       	sbi	0x06, 5	; 6
  8c:	32 9a       	sbi	0x06, 2	; 6
  8e:	31 9a       	sbi	0x06, 1	; 6
  90:	30 9a       	sbi	0x06, 0	; 6
  92:	33 9a       	sbi	0x06, 3	; 6
  94:	37 9a       	sbi	0x06, 7	; 6
  96:	08 95       	ret

00000098 <ADC_Read>:
  98:	36 9a       	sbi	0x06, 6	; 6
  9a:	34 9b       	sbis	0x06, 4	; 6
  9c:	fe cf       	rjmp	.-4      	; 0x9a <ADC_Read+0x2>
  9e:	64 b1       	in	r22, 0x04	; 4
  a0:	75 b1       	in	r23, 0x05	; 5
  a2:	44 ef       	ldi	r20, 0xF4	; 244
  a4:	51 e0       	ldi	r21, 0x01	; 1
  a6:	64 9f       	mul	r22, r20
  a8:	90 01       	movw	r18, r0
  aa:	65 9f       	mul	r22, r21
  ac:	30 0d       	add	r19, r0
  ae:	74 9f       	mul	r23, r20
  b0:	30 0d       	add	r19, r0
  b2:	11 24       	eor	r1, r1
  b4:	23 2f       	mov	r18, r19
  b6:	26 95       	lsr	r18
  b8:	26 95       	lsr	r18
  ba:	fc 01       	movw	r30, r24
  bc:	20 83       	st	Z, r18
  be:	11 82       	std	Z+1, r1	; 0x01
  c0:	08 95       	ret

000000c2 <DIO_SetPinDir>:
  c2:	44 23       	and	r20, r20
  c4:	79 f1       	breq	.+94     	; 0x124 <DIO_SetPinDir+0x62>
  c6:	41 30       	cpi	r20, 0x01	; 1
  c8:	09 f0       	breq	.+2      	; 0xcc <DIO_SetPinDir+0xa>
  ca:	5f c0       	rjmp	.+190    	; 0x18a <DIO_SetPinDir+0xc8>
  cc:	81 30       	cpi	r24, 0x01	; 1
  ce:	79 f0       	breq	.+30     	; 0xee <DIO_SetPinDir+0x2c>
  d0:	28 f0       	brcs	.+10     	; 0xdc <DIO_SetPinDir+0x1a>
  d2:	82 30       	cpi	r24, 0x02	; 2
  d4:	a9 f0       	breq	.+42     	; 0x100 <DIO_SetPinDir+0x3e>
  d6:	83 30       	cpi	r24, 0x03	; 3
  d8:	e1 f0       	breq	.+56     	; 0x112 <DIO_SetPinDir+0x50>
  da:	08 95       	ret
  dc:	2a b3       	in	r18, 0x1a	; 26
  de:	81 e0       	ldi	r24, 0x01	; 1
  e0:	90 e0       	ldi	r25, 0x00	; 0
  e2:	01 c0       	rjmp	.+2      	; 0xe6 <DIO_SetPinDir+0x24>
  e4:	88 0f       	add	r24, r24
  e6:	6a 95       	dec	r22
  e8:	ea f7       	brpl	.-6      	; 0xe4 <DIO_SetPinDir+0x22>
  ea:	82 2b       	or	r24, r18
  ec:	2c c0       	rjmp	.+88     	; 0x146 <DIO_SetPinDir+0x84>
  ee:	27 b3       	in	r18, 0x17	; 23
  f0:	81 e0       	ldi	r24, 0x01	; 1
  f2:	90 e0       	ldi	r25, 0x00	; 0
  f4:	01 c0       	rjmp	.+2      	; 0xf8 <DIO_SetPinDir+0x36>
  f6:	88 0f       	add	r24, r24
  f8:	6a 95       	dec	r22
  fa:	ea f7       	brpl	.-6      	; 0xf6 <DIO_SetPinDir+0x34>
  fc:	82 2b       	or	r24, r18
  fe:	2e c0       	rjmp	.+92     	; 0x15c <DIO_SetPinDir+0x9a>
 100:	24 b3       	in	r18, 0x14	; 20
 102:	81 e0       	ldi	r24, 0x01	; 1
 104:	90 e0       	ldi	r25, 0x00	; 0
 106:	01 c0       	rjmp	.+2      	; 0x10a <DIO_SetPinDir+0x48>
 108:	88 0f       	add	r24, r24
 10a:	6a 95       	dec	r22
 10c:	ea f7       	brpl	.-6      	; 0x108 <DIO_SetPinDir+0x46>
 10e:	82 2b       	or	r24, r18
 110:	30 c0       	rjmp	.+96     	; 0x172 <DIO_SetPinDir+0xb0>
 112:	21 b3       	in	r18, 0x11	; 17
 114:	81 e0       	ldi	r24, 0x01	; 1
 116:	90 e0       	ldi	r25, 0x00	; 0
 118:	01 c0       	rjmp	.+2      	; 0x11c <DIO_SetPinDir+0x5a>
 11a:	88 0f       	add	r24, r24
 11c:	6a 95       	dec	r22
 11e:	ea f7       	brpl	.-6      	; 0x11a <DIO_SetPinDir+0x58>
 120:	82 2b       	or	r24, r18
 122:	32 c0       	rjmp	.+100    	; 0x188 <DIO_SetPinDir+0xc6>
 124:	81 30       	cpi	r24, 0x01	; 1
 126:	89 f0       	breq	.+34     	; 0x14a <DIO_SetPinDir+0x88>
 128:	28 f0       	brcs	.+10     	; 0x134 <DIO_SetPinDir+0x72>
 12a:	82 30       	cpi	r24, 0x02	; 2
 12c:	c9 f0       	breq	.+50     	; 0x160 <DIO_SetPinDir+0x9e>
 12e:	83 30       	cpi	r24, 0x03	; 3
 130:	11 f1       	breq	.+68     	; 0x176 <DIO_SetPinDir+0xb4>
 132:	08 95       	ret
 134:	2a b3       	in	r18, 0x1a	; 26
 136:	81 e0       	ldi	r24, 0x01	; 1
 138:	90 e0       	ldi	r25, 0x00	; 0
 13a:	01 c0       	rjmp	.+2      	; 0x13e <DIO_SetPinDir+0x7c>
 13c:	88 0f       	add	r24, r24
 13e:	6a 95       	dec	r22
 140:	ea f7       	brpl	.-6      	; 0x13c <DIO_SetPinDir+0x7a>
 142:	80 95       	com	r24
 144:	82 23       	and	r24, r18
 146:	8a bb       	out	0x1a, r24	; 26
 148:	08 95       	ret
 14a:	27 b3       	in	r18, 0x17	; 23
 14c:	81 e0       	ldi	r24, 0x01	; 1
 14e:	90 e0       	ldi	r25, 0x00	; 0
 150:	01 c0       	rjmp	.+2      	; 0x154 <DIO_SetPinDir+0x92>
 152:	88 0f       	add	r24, r24
 154:	6a 95       	dec	r22
 156:	ea f7       	brpl	.-6      	; 0x152 <DIO_SetPinDir+0x90>
 158:	80 95       	com	r24
 15a:	82 23       	and	r24, r18
 15c:	87 bb       	out	0x17, r24	; 23
 15e:	08 95       	ret
 160:	24 b3       	in	r18, 0x14	; 20
 162:	81 e0       	ldi	r24, 0x01	; 1
 164:	90 e0       	ldi	r25, 0x00	; 0
 166:	01 c0       	rjmp	.+2      	; 0x16a <DIO_SetPinDir+0xa8>
 168:	88 0f       	add	r24, r24
 16a:	6a 95       	dec	r22
 16c:	ea f7       	brpl	.-6      	; 0x168 <DIO_SetPinDir+0xa6>
 16e:	80 95       	com	r24
 170:	82 23       	and	r24, r18
 172:	84 bb       	out	0x14, r24	; 20
 174:	08 95       	ret
 176:	21 b3       	in	r18, 0x11	; 17
 178:	81 e0       	ldi	r24, 0x01	; 1
 17a:	90 e0       	ldi	r25, 0x00	; 0
 17c:	01 c0       	rjmp	.+2      	; 0x180 <DIO_SetPinDir+0xbe>
 17e:	88 0f       	add	r24, r24
 180:	6a 95       	dec	r22
 182:	ea f7       	brpl	.-6      	; 0x17e <DIO_SetPinDir+0xbc>
 184:	80 95       	com	r24
 186:	82 23       	and	r24, r18
 188:	81 bb       	out	0x11, r24	; 17
 18a:	08 95       	ret

0000018c <DIO_WritePin>:
 18c:	44 23       	and	r20, r20
 18e:	79 f1       	breq	.+94     	; 0x1ee <DIO_WritePin+0x62>
 190:	41 30       	cpi	r20, 0x01	; 1
 192:	09 f0       	breq	.+2      	; 0x196 <DIO_WritePin+0xa>
 194:	5f c0       	rjmp	.+190    	; 0x254 <DIO_WritePin+0xc8>
 196:	81 30       	cpi	r24, 0x01	; 1
 198:	79 f0       	breq	.+30     	; 0x1b8 <DIO_WritePin+0x2c>
 19a:	28 f0       	brcs	.+10     	; 0x1a6 <DIO_WritePin+0x1a>
 19c:	82 30       	cpi	r24, 0x02	; 2
 19e:	a9 f0       	breq	.+42     	; 0x1ca <DIO_WritePin+0x3e>
 1a0:	83 30       	cpi	r24, 0x03	; 3
 1a2:	e1 f0       	breq	.+56     	; 0x1dc <DIO_WritePin+0x50>
 1a4:	08 95       	ret
 1a6:	2b b3       	in	r18, 0x1b	; 27
 1a8:	81 e0       	ldi	r24, 0x01	; 1
 1aa:	90 e0       	ldi	r25, 0x00	; 0
 1ac:	01 c0       	rjmp	.+2      	; 0x1b0 <DIO_WritePin+0x24>
 1ae:	88 0f       	add	r24, r24
 1b0:	6a 95       	dec	r22
 1b2:	ea f7       	brpl	.-6      	; 0x1ae <DIO_WritePin+0x22>
 1b4:	82 2b       	or	r24, r18
 1b6:	2c c0       	rjmp	.+88     	; 0x210 <DIO_WritePin+0x84>
 1b8:	28 b3       	in	r18, 0x18	; 24
 1ba:	81 e0       	ldi	r24, 0x01	; 1
 1bc:	90 e0       	ldi	r25, 0x00	; 0
 1be:	01 c0       	rjmp	.+2      	; 0x1c2 <DIO_WritePin+0x36>
 1c0:	88 0f       	add	r24, r24
 1c2:	6a 95       	dec	r22
 1c4:	ea f7       	brpl	.-6      	; 0x1c0 <DIO_WritePin+0x34>
 1c6:	82 2b       	or	r24, r18
 1c8:	2e c0       	rjmp	.+92     	; 0x226 <DIO_WritePin+0x9a>
 1ca:	25 b3       	in	r18, 0x15	; 21
 1cc:	81 e0       	ldi	r24, 0x01	; 1
 1ce:	90 e0       	ldi	r25, 0x00	; 0
 1d0:	01 c0       	rjmp	.+2      	; 0x1d4 <DIO_WritePin+0x48>
 1d2:	88 0f       	add	r24, r24
 1d4:	6a 95       	dec	r22
 1d6:	ea f7       	brpl	.-6      	; 0x1d2 <DIO_WritePin+0x46>
 1d8:	82 2b       	or	r24, r18
 1da:	30 c0       	rjmp	.+96     	; 0x23c <DIO_WritePin+0xb0>
 1dc:	22 b3       	in	r18, 0x12	; 18
 1de:	81 e0       	ldi	r24, 0x01	; 1
 1e0:	90 e0       	ldi	r25, 0x00	; 0
 1e2:	01 c0       	rjmp	.+2      	; 0x1e6 <DIO_WritePin+0x5a>
 1e4:	88 0f       	add	r24, r24
 1e6:	6a 95       	dec	r22
 1e8:	ea f7       	brpl	.-6      	; 0x1e4 <DIO_WritePin+0x58>
 1ea:	82 2b       	or	r24, r18
 1ec:	32 c0       	rjmp	.+100    	; 0x252 <DIO_WritePin+0xc6>
 1ee:	81 30       	cpi	r24, 0x01	; 1
 1f0:	89 f0       	breq	.+34     	; 0x214 <DIO_WritePin+0x88>
 1f2:	28 f0       	brcs	.+10     	; 0x1fe <DIO_WritePin+0x72>
 1f4:	82 30       	cpi	r24, 0x02	; 2
 1f6:	c9 f0       	breq	.+50     	; 0x22a <DIO_WritePin+0x9e>
 1f8:	83 30       	cpi	r24, 0x03	; 3
 1fa:	11 f1       	breq	.+68     	; 0x240 <DIO_WritePin+0xb4>
 1fc:	08 95       	ret
 1fe:	2b b3       	in	r18, 0x1b	; 27
 200:	81 e0       	ldi	r24, 0x01	; 1
 202:	90 e0       	ldi	r25, 0x00	; 0
 204:	01 c0       	rjmp	.+2      	; 0x208 <DIO_WritePin+0x7c>
 206:	88 0f       	add	r24, r24
 208:	6a 95       	dec	r22
 20a:	ea f7       	brpl	.-6      	; 0x206 <DIO_WritePin+0x7a>
 20c:	80 95       	com	r24
 20e:	82 23       	and	r24, r18
 210:	8b bb       	out	0x1b, r24	; 27
 212:	08 95       	ret
 214:	28 b3       	in	r18, 0x18	; 24
 216:	81 e0       	ldi	r24, 0x01	; 1
 218:	90 e0       	ldi	r25, 0x00	; 0
 21a:	01 c0       	rjmp	.+2      	; 0x21e <DIO_WritePin+0x92>
 21c:	88 0f       	add	r24, r24
 21e:	6a 95       	dec	r22
 220:	ea f7       	brpl	.-6      	; 0x21c <DIO_WritePin+0x90>
 222:	80 95       	com	r24
 224:	82 23       	and	r24, r18
 226:	88 bb       	out	0x18, r24	; 24
 228:	08 95       	ret
 22a:	25 b3       	in	r18, 0x15	; 21
 22c:	81 e0       	ldi	r24, 0x01	; 1
 22e:	90 e0       	ldi	r25, 0x00	; 0
 230:	01 c0       	rjmp	.+2      	; 0x234 <DIO_WritePin+0xa8>
 232:	88 0f       	add	r24, r24
 234:	6a 95       	dec	r22
 236:	ea f7       	brpl	.-6      	; 0x232 <DIO_WritePin+0xa6>
 238:	80 95       	com	r24
 23a:	82 23       	and	r24, r18
 23c:	85 bb       	out	0x15, r24	; 21
 23e:	08 95       	ret
 240:	22 b3       	in	r18, 0x12	; 18
 242:	81 e0       	ldi	r24, 0x01	; 1
 244:	90 e0       	ldi	r25, 0x00	; 0
 246:	01 c0       	rjmp	.+2      	; 0x24a <DIO_WritePin+0xbe>
 248:	88 0f       	add	r24, r24
 24a:	6a 95       	dec	r22
 24c:	ea f7       	brpl	.-6      	; 0x248 <DIO_WritePin+0xbc>
 24e:	80 95       	com	r24
 250:	82 23       	and	r24, r18
 252:	82 bb       	out	0x12, r24	; 18
 254:	08 95       	ret

00000256 <DIO_ReadPin>:
 256:	fa 01       	movw	r30, r20
 258:	81 30       	cpi	r24, 0x01	; 1
 25a:	41 f0       	breq	.+16     	; 0x26c <DIO_ReadPin+0x16>
 25c:	28 f0       	brcs	.+10     	; 0x268 <DIO_ReadPin+0x12>
 25e:	82 30       	cpi	r24, 0x02	; 2
 260:	39 f0       	breq	.+14     	; 0x270 <DIO_ReadPin+0x1a>
 262:	83 30       	cpi	r24, 0x03	; 3
 264:	39 f0       	breq	.+14     	; 0x274 <DIO_ReadPin+0x1e>
 266:	08 95       	ret
 268:	89 b3       	in	r24, 0x19	; 25
 26a:	05 c0       	rjmp	.+10     	; 0x276 <DIO_ReadPin+0x20>
 26c:	86 b3       	in	r24, 0x16	; 22
 26e:	03 c0       	rjmp	.+6      	; 0x276 <DIO_ReadPin+0x20>
 270:	83 b3       	in	r24, 0x13	; 19
 272:	01 c0       	rjmp	.+2      	; 0x276 <DIO_ReadPin+0x20>
 274:	80 b3       	in	r24, 0x10	; 16
 276:	90 e0       	ldi	r25, 0x00	; 0
 278:	02 c0       	rjmp	.+4      	; 0x27e <DIO_ReadPin+0x28>
 27a:	95 95       	asr	r25
 27c:	87 95       	ror	r24
 27e:	6a 95       	dec	r22
 280:	e2 f7       	brpl	.-8      	; 0x27a <DIO_ReadPin+0x24>
 282:	81 70       	andi	r24, 0x01	; 1
 284:	80 83       	st	Z, r24
 286:	08 95       	ret

00000288 <DIO_SetPullUp>:
 288:	81 30       	cpi	r24, 0x01	; 1
 28a:	81 f0       	breq	.+32     	; 0x2ac <DIO_SetPullUp+0x24>
 28c:	28 f0       	brcs	.+10     	; 0x298 <DIO_SetPullUp+0x10>
 28e:	82 30       	cpi	r24, 0x02	; 2
 290:	b9 f0       	breq	.+46     	; 0x2c0 <DIO_SetPullUp+0x38>
 292:	83 30       	cpi	r24, 0x03	; 3
 294:	f9 f0       	breq	.+62     	; 0x2d4 <DIO_SetPullUp+0x4c>
 296:	08 95       	ret
 298:	2b b3       	in	r18, 0x1b	; 27
 29a:	81 e0       	ldi	r24, 0x01	; 1
 29c:	90 e0       	ldi	r25, 0x00	; 0
 29e:	01 c0       	rjmp	.+2      	; 0x2a2 <DIO_SetPullUp+0x1a>
 2a0:	88 0f       	add	r24, r24
 2a2:	6a 95       	dec	r22
 2a4:	ea f7       	brpl	.-6      	; 0x2a0 <DIO_SetPullUp+0x18>
 2a6:	82 2b       	or	r24, r18
 2a8:	8b bb       	out	0x1b, r24	; 27
 2aa:	08 95       	ret
 2ac:	28 b3       	in	r18, 0x18	; 24
 2ae:	81 e0       	ldi	r24, 0x01	; 1
 2b0:	90 e0       	ldi	r25, 0x00	; 0
 2b2:	01 c0       	rjmp	.+2      	; 0x2b6 <DIO_SetPullUp+0x2e>
 2b4:	88 0f       	add	r24, r24
 2b6:	6a 95       	dec	r22
 2b8:	ea f7       	brpl	.-6      	; 0x2b4 <DIO_SetPullUp+0x2c>
 2ba:	82 2b       	or	r24, r18
 2bc:	88 bb       	out	0x18, r24	; 24
 2be:	08 95       	ret
 2c0:	25 b3       	in	r18, 0x15	; 21
 2c2:	81 e0       	ldi	r24, 0x01	; 1
 2c4:	90 e0       	ldi	r25, 0x00	; 0
 2c6:	01 c0       	rjmp	.+2      	; 0x2ca <DIO_SetPullUp+0x42>
 2c8:	88 0f       	add	r24, r24
 2ca:	6a 95       	dec	r22
 2cc:	ea f7       	brpl	.-6      	; 0x2c8 <DIO_SetPullUp+0x40>
 2ce:	82 2b       	or	r24, r18
 2d0:	85 bb       	out	0x15, r24	; 21
 2d2:	08 95       	ret
 2d4:	22 b3       	in	r18, 0x12	; 18
 2d6:	81 e0       	ldi	r24, 0x01	; 1
 2d8:	90 e0       	ldi	r25, 0x00	; 0
 2da:	01 c0       	rjmp	.+2      	; 0x2de <DIO_SetPullUp+0x56>
 2dc:	88 0f       	add	r24, r24
 2de:	6a 95       	dec	r22
 2e0:	ea f7       	brpl	.-6      	; 0x2dc <DIO_SetPullUp+0x54>
 2e2:	82 2b       	or	r24, r18
 2e4:	82 bb       	out	0x12, r24	; 18
 2e6:	08 95       	ret

000002e8 <KeyPad_Init>:
 2e8:	41 e0       	ldi	r20, 0x01	; 1
 2ea:	60 e0       	ldi	r22, 0x00	; 0
 2ec:	83 e0       	ldi	r24, 0x03	; 3
 2ee:	0e 94 61 00 	call	0xc2	; 0xc2 <DIO_SetPinDir>
 2f2:	41 e0       	ldi	r20, 0x01	; 1
 2f4:	61 e0       	ldi	r22, 0x01	; 1
 2f6:	83 e0       	ldi	r24, 0x03	; 3
 2f8:	0e 94 61 00 	call	0xc2	; 0xc2 <DIO_SetPinDir>
 2fc:	41 e0       	ldi	r20, 0x01	; 1
 2fe:	62 e0       	ldi	r22, 0x02	; 2
 300:	83 e0       	ldi	r24, 0x03	; 3
 302:	0e 94 61 00 	call	0xc2	; 0xc2 <DIO_SetPinDir>
 306:	41 e0       	ldi	r20, 0x01	; 1
 308:	63 e0       	ldi	r22, 0x03	; 3
 30a:	83 e0       	ldi	r24, 0x03	; 3
 30c:	0e 94 61 00 	call	0xc2	; 0xc2 <DIO_SetPinDir>
 310:	40 e0       	ldi	r20, 0x00	; 0
 312:	64 e0       	ldi	r22, 0x04	; 4
 314:	83 e0       	ldi	r24, 0x03	; 3
 316:	0e 94 61 00 	call	0xc2	; 0xc2 <DIO_SetPinDir>
 31a:	40 e0       	ldi	r20, 0x00	; 0
 31c:	65 e0       	ldi	r22, 0x05	; 5
 31e:	83 e0       	ldi	r24, 0x03	; 3
 320:	0e 94 61 00 	call	0xc2	; 0xc2 <DIO_SetPinDir>
 324:	40 e0       	ldi	r20, 0x00	; 0
 326:	66 e0       	ldi	r22, 0x06	; 6
 328:	83 e0       	ldi	r24, 0x03	; 3
 32a:	0e 94 61 00 	call	0xc2	; 0xc2 <DIO_SetPinDir>
 32e:	40 e0       	ldi	r20, 0x00	; 0
 330:	67 e0       	ldi	r22, 0x07	; 7
 332:	83 e0       	ldi	r24, 0x03	; 3
 334:	0e 94 61 00 	call	0xc2	; 0xc2 <DIO_SetPinDir>
 338:	64 e0       	ldi	r22, 0x04	; 4
 33a:	83 e0       	ldi	r24, 0x03	; 3
 33c:	0e 94 44 01 	call	0x288	; 0x288 <DIO_SetPullUp>
 340:	65 e0       	ldi	r22, 0x05	; 5
 342:	83 e0       	ldi	r24, 0x03	; 3
 344:	0e 94 44 01 	call	0x288	; 0x288 <DIO_SetPullUp>
 348:	66 e0       	ldi	r22, 0x06	; 6
 34a:	83 e0       	ldi	r24, 0x03	; 3
 34c:	0e 94 44 01 	call	0x288	; 0x288 <DIO_SetPullUp>
 350:	67 e0       	ldi	r22, 0x07	; 7
 352:	83 e0       	ldi	r24, 0x03	; 3
 354:	0e 94 44 01 	call	0x288	; 0x288 <DIO_SetPullUp>
 358:	41 e0       	ldi	r20, 0x01	; 1
 35a:	60 e0       	ldi	r22, 0x00	; 0
 35c:	83 e0       	ldi	r24, 0x03	; 3
 35e:	0e 94 c6 00 	call	0x18c	; 0x18c <DIO_WritePin>
 362:	41 e0       	ldi	r20, 0x01	; 1
 364:	61 e0       	ldi	r22, 0x01	; 1
 366:	83 e0       	ldi	r24, 0x03	; 3
 368:	0e 94 c6 00 	call	0x18c	; 0x18c <DIO_WritePin>
 36c:	41 e0       	ldi	r20, 0x01	; 1
 36e:	62 e0       	ldi	r22, 0x02	; 2
 370:	83 e0       	ldi	r24, 0x03	; 3
 372:	0e 94 c6 00 	call	0x18c	; 0x18c <DIO_WritePin>
 376:	41 e0       	ldi	r20, 0x01	; 1
 378:	63 e0       	ldi	r22, 0x03	; 3
 37a:	83 e0       	ldi	r24, 0x03	; 3
 37c:	0c 94 c6 00 	jmp	0x18c	; 0x18c <DIO_WritePin>

00000380 <KeyPad_GetValue>:
 380:	bf 92       	push	r11
 382:	cf 92       	push	r12
 384:	df 92       	push	r13
 386:	ef 92       	push	r14
 388:	ff 92       	push	r15
 38a:	0f 93       	push	r16
 38c:	1f 93       	push	r17
 38e:	cf 93       	push	r28
 390:	df 93       	push	r29
 392:	1f 92       	push	r1
 394:	cd b7       	in	r28, 0x3d	; 61
 396:	de b7       	in	r29, 0x3e	; 62
 398:	19 82       	std	Y+1, r1	; 0x01
 39a:	80 e6       	ldi	r24, 0x60	; 96
 39c:	e8 2e       	mov	r14, r24
 39e:	80 e0       	ldi	r24, 0x00	; 0
 3a0:	f8 2e       	mov	r15, r24
 3a2:	b1 2c       	mov	r11, r1
 3a4:	10 e0       	ldi	r17, 0x00	; 0
 3a6:	40 e0       	ldi	r20, 0x00	; 0
 3a8:	61 2f       	mov	r22, r17
 3aa:	83 e0       	ldi	r24, 0x03	; 3
 3ac:	0e 94 c6 00 	call	0x18c	; 0x18c <DIO_WritePin>
 3b0:	67 01       	movw	r12, r14
 3b2:	04 e0       	ldi	r16, 0x04	; 4
 3b4:	ae 01       	movw	r20, r28
 3b6:	4f 5f       	subi	r20, 0xFF	; 255
 3b8:	5f 4f       	sbci	r21, 0xFF	; 255
 3ba:	60 2f       	mov	r22, r16
 3bc:	83 e0       	ldi	r24, 0x03	; 3
 3be:	0e 94 2b 01 	call	0x256	; 0x256 <DIO_ReadPin>
 3c2:	89 81       	ldd	r24, Y+1	; 0x01
 3c4:	81 11       	cpse	r24, r1
 3c6:	13 c0       	rjmp	.+38     	; 0x3ee <KeyPad_GetValue+0x6e>
 3c8:	f6 01       	movw	r30, r12
 3ca:	b0 80       	ld	r11, Z
 3cc:	89 81       	ldd	r24, Y+1	; 0x01
 3ce:	81 11       	cpse	r24, r1
 3d0:	08 c0       	rjmp	.+16     	; 0x3e2 <KeyPad_GetValue+0x62>
 3d2:	ae 01       	movw	r20, r28
 3d4:	4f 5f       	subi	r20, 0xFF	; 255
 3d6:	5f 4f       	sbci	r21, 0xFF	; 255
 3d8:	60 2f       	mov	r22, r16
 3da:	83 e0       	ldi	r24, 0x03	; 3
 3dc:	0e 94 2b 01 	call	0x256	; 0x256 <DIO_ReadPin>
 3e0:	f5 cf       	rjmp	.-22     	; 0x3cc <KeyPad_GetValue+0x4c>
 3e2:	8f e3       	ldi	r24, 0x3F	; 63
 3e4:	9c e9       	ldi	r25, 0x9C	; 156
 3e6:	01 97       	sbiw	r24, 0x01	; 1
 3e8:	f1 f7       	brne	.-4      	; 0x3e6 <KeyPad_GetValue+0x66>
 3ea:	00 c0       	rjmp	.+0      	; 0x3ec <KeyPad_GetValue+0x6c>
 3ec:	00 00       	nop
 3ee:	0f 5f       	subi	r16, 0xFF	; 255
 3f0:	94 e0       	ldi	r25, 0x04	; 4
 3f2:	c9 0e       	add	r12, r25
 3f4:	d1 1c       	adc	r13, r1
 3f6:	08 30       	cpi	r16, 0x08	; 8
 3f8:	e9 f6       	brne	.-70     	; 0x3b4 <KeyPad_GetValue+0x34>
 3fa:	41 e0       	ldi	r20, 0x01	; 1
 3fc:	61 2f       	mov	r22, r17
 3fe:	83 e0       	ldi	r24, 0x03	; 3
 400:	0e 94 c6 00 	call	0x18c	; 0x18c <DIO_WritePin>
 404:	1f 5f       	subi	r17, 0xFF	; 255
 406:	ef ef       	ldi	r30, 0xFF	; 255
 408:	ee 1a       	sub	r14, r30
 40a:	fe 0a       	sbc	r15, r30
 40c:	14 30       	cpi	r17, 0x04	; 4
 40e:	59 f6       	brne	.-106    	; 0x3a6 <KeyPad_GetValue+0x26>
 410:	8b 2d       	mov	r24, r11
 412:	0f 90       	pop	r0
 414:	df 91       	pop	r29
 416:	cf 91       	pop	r28
 418:	1f 91       	pop	r17
 41a:	0f 91       	pop	r16
 41c:	ff 90       	pop	r15
 41e:	ef 90       	pop	r14
 420:	df 90       	pop	r13
 422:	cf 90       	pop	r12
 424:	bf 90       	pop	r11
 426:	08 95       	ret

00000428 <LCD_WriteCommand>:
 428:	cf 93       	push	r28
 42a:	c8 2f       	mov	r28, r24
 42c:	40 e0       	ldi	r20, 0x00	; 0
 42e:	61 e0       	ldi	r22, 0x01	; 1
 430:	81 e0       	ldi	r24, 0x01	; 1
 432:	0e 94 c6 00 	call	0x18c	; 0x18c <DIO_WritePin>
 436:	40 e0       	ldi	r20, 0x00	; 0
 438:	62 e0       	ldi	r22, 0x02	; 2
 43a:	81 e0       	ldi	r24, 0x01	; 1
 43c:	0e 94 c6 00 	call	0x18c	; 0x18c <DIO_WritePin>
 440:	40 e0       	ldi	r20, 0x00	; 0
 442:	63 e0       	ldi	r22, 0x03	; 3
 444:	81 e0       	ldi	r24, 0x01	; 1
 446:	0e 94 c6 00 	call	0x18c	; 0x18c <DIO_WritePin>
 44a:	8b b3       	in	r24, 0x1b	; 27
 44c:	9c 2f       	mov	r25, r28
 44e:	90 7f       	andi	r25, 0xF0	; 240
 450:	8f 70       	andi	r24, 0x0F	; 15
 452:	89 2b       	or	r24, r25
 454:	8b bb       	out	0x1b, r24	; 27
 456:	41 e0       	ldi	r20, 0x01	; 1
 458:	63 e0       	ldi	r22, 0x03	; 3
 45a:	81 e0       	ldi	r24, 0x01	; 1
 45c:	0e 94 c6 00 	call	0x18c	; 0x18c <DIO_WritePin>
 460:	8f e9       	ldi	r24, 0x9F	; 159
 462:	9f e0       	ldi	r25, 0x0F	; 15
 464:	01 97       	sbiw	r24, 0x01	; 1
 466:	f1 f7       	brne	.-4      	; 0x464 <LCD_WriteCommand+0x3c>
 468:	00 c0       	rjmp	.+0      	; 0x46a <LCD_WriteCommand+0x42>
 46a:	00 00       	nop
 46c:	40 e0       	ldi	r20, 0x00	; 0
 46e:	63 e0       	ldi	r22, 0x03	; 3
 470:	81 e0       	ldi	r24, 0x01	; 1
 472:	0e 94 c6 00 	call	0x18c	; 0x18c <DIO_WritePin>
 476:	2b b3       	in	r18, 0x1b	; 27
 478:	30 e1       	ldi	r19, 0x10	; 16
 47a:	c3 9f       	mul	r28, r19
 47c:	c0 01       	movw	r24, r0
 47e:	11 24       	eor	r1, r1
 480:	92 2f       	mov	r25, r18
 482:	9f 70       	andi	r25, 0x0F	; 15
 484:	89 2b       	or	r24, r25
 486:	8b bb       	out	0x1b, r24	; 27
 488:	41 e0       	ldi	r20, 0x01	; 1
 48a:	63 e0       	ldi	r22, 0x03	; 3
 48c:	81 e0       	ldi	r24, 0x01	; 1
 48e:	0e 94 c6 00 	call	0x18c	; 0x18c <DIO_WritePin>
 492:	8f e9       	ldi	r24, 0x9F	; 159
 494:	9f e0       	ldi	r25, 0x0F	; 15
 496:	01 97       	sbiw	r24, 0x01	; 1
 498:	f1 f7       	brne	.-4      	; 0x496 <LCD_WriteCommand+0x6e>
 49a:	00 c0       	rjmp	.+0      	; 0x49c <LCD_WriteCommand+0x74>
 49c:	00 00       	nop
 49e:	40 e0       	ldi	r20, 0x00	; 0
 4a0:	63 e0       	ldi	r22, 0x03	; 3
 4a2:	81 e0       	ldi	r24, 0x01	; 1
 4a4:	0e 94 c6 00 	call	0x18c	; 0x18c <DIO_WritePin>
 4a8:	8f e1       	ldi	r24, 0x1F	; 31
 4aa:	9e e4       	ldi	r25, 0x4E	; 78
 4ac:	01 97       	sbiw	r24, 0x01	; 1
 4ae:	f1 f7       	brne	.-4      	; 0x4ac <LCD_WriteCommand+0x84>
 4b0:	00 c0       	rjmp	.+0      	; 0x4b2 <LCD_WriteCommand+0x8a>
 4b2:	00 00       	nop
 4b4:	cf 91       	pop	r28
 4b6:	08 95       	ret

000004b8 <LCD_Init>:
 4b8:	41 e0       	ldi	r20, 0x01	; 1
 4ba:	61 e0       	ldi	r22, 0x01	; 1
 4bc:	81 e0       	ldi	r24, 0x01	; 1
 4be:	0e 94 61 00 	call	0xc2	; 0xc2 <DIO_SetPinDir>
 4c2:	41 e0       	ldi	r20, 0x01	; 1
 4c4:	62 e0       	ldi	r22, 0x02	; 2
 4c6:	81 e0       	ldi	r24, 0x01	; 1
 4c8:	0e 94 61 00 	call	0xc2	; 0xc2 <DIO_SetPinDir>
 4cc:	41 e0       	ldi	r20, 0x01	; 1
 4ce:	63 e0       	ldi	r22, 0x03	; 3
 4d0:	81 e0       	ldi	r24, 0x01	; 1
 4d2:	0e 94 61 00 	call	0xc2	; 0xc2 <DIO_SetPinDir>
 4d6:	41 e0       	ldi	r20, 0x01	; 1
 4d8:	64 e0       	ldi	r22, 0x04	; 4
 4da:	80 e0       	ldi	r24, 0x00	; 0
 4dc:	0e 94 61 00 	call	0xc2	; 0xc2 <DIO_SetPinDir>
 4e0:	41 e0       	ldi	r20, 0x01	; 1
 4e2:	65 e0       	ldi	r22, 0x05	; 5
 4e4:	80 e0       	ldi	r24, 0x00	; 0
 4e6:	0e 94 61 00 	call	0xc2	; 0xc2 <DIO_SetPinDir>
 4ea:	41 e0       	ldi	r20, 0x01	; 1
 4ec:	66 e0       	ldi	r22, 0x06	; 6
 4ee:	80 e0       	ldi	r24, 0x00	; 0
 4f0:	0e 94 61 00 	call	0xc2	; 0xc2 <DIO_SetPinDir>
 4f4:	41 e0       	ldi	r20, 0x01	; 1
 4f6:	67 e0       	ldi	r22, 0x07	; 7
 4f8:	80 e0       	ldi	r24, 0x00	; 0
 4fa:	0e 94 61 00 	call	0xc2	; 0xc2 <DIO_SetPinDir>
 4fe:	2f ef       	ldi	r18, 0xFF	; 255
 500:	81 ee       	ldi	r24, 0xE1	; 225
 502:	94 e0       	ldi	r25, 0x04	; 4
 504:	21 50       	subi	r18, 0x01	; 1
 506:	80 40       	sbci	r24, 0x00	; 0
 508:	90 40       	sbci	r25, 0x00	; 0
 50a:	e1 f7       	brne	.-8      	; 0x504 <LCD_Init+0x4c>
 50c:	00 c0       	rjmp	.+0      	; 0x50e <LCD_Init+0x56>
 50e:	00 00       	nop
 510:	83 e3       	ldi	r24, 0x33	; 51
 512:	0e 94 14 02 	call	0x428	; 0x428 <LCD_WriteCommand>
 516:	82 e3       	ldi	r24, 0x32	; 50
 518:	0e 94 14 02 	call	0x428	; 0x428 <LCD_WriteCommand>
 51c:	88 e2       	ldi	r24, 0x28	; 40
 51e:	0e 94 14 02 	call	0x428	; 0x428 <LCD_WriteCommand>
 522:	8c e0       	ldi	r24, 0x0C	; 12
 524:	0e 94 14 02 	call	0x428	; 0x428 <LCD_WriteCommand>
 528:	81 e0       	ldi	r24, 0x01	; 1
 52a:	0e 94 14 02 	call	0x428	; 0x428 <LCD_WriteCommand>
 52e:	86 e0       	ldi	r24, 0x06	; 6
 530:	0e 94 14 02 	call	0x428	; 0x428 <LCD_WriteCommand>
 534:	82 e0       	ldi	r24, 0x02	; 2
 536:	0c 94 14 02 	jmp	0x428	; 0x428 <LCD_WriteCommand>

0000053a <LCD_WriteChar>:
 53a:	cf 93       	push	r28
 53c:	c8 2f       	mov	r28, r24
 53e:	41 e0       	ldi	r20, 0x01	; 1
 540:	61 e0       	ldi	r22, 0x01	; 1
 542:	81 e0       	ldi	r24, 0x01	; 1
 544:	0e 94 c6 00 	call	0x18c	; 0x18c <DIO_WritePin>
 548:	40 e0       	ldi	r20, 0x00	; 0
 54a:	62 e0       	ldi	r22, 0x02	; 2
 54c:	81 e0       	ldi	r24, 0x01	; 1
 54e:	0e 94 c6 00 	call	0x18c	; 0x18c <DIO_WritePin>
 552:	40 e0       	ldi	r20, 0x00	; 0
 554:	63 e0       	ldi	r22, 0x03	; 3
 556:	81 e0       	ldi	r24, 0x01	; 1
 558:	0e 94 c6 00 	call	0x18c	; 0x18c <DIO_WritePin>
 55c:	8c 2f       	mov	r24, r28
 55e:	80 7f       	andi	r24, 0xF0	; 240
 560:	8b bb       	out	0x1b, r24	; 27
 562:	41 e0       	ldi	r20, 0x01	; 1
 564:	63 e0       	ldi	r22, 0x03	; 3
 566:	81 e0       	ldi	r24, 0x01	; 1
 568:	0e 94 c6 00 	call	0x18c	; 0x18c <DIO_WritePin>
 56c:	8f e9       	ldi	r24, 0x9F	; 159
 56e:	9f e0       	ldi	r25, 0x0F	; 15
 570:	01 97       	sbiw	r24, 0x01	; 1
 572:	f1 f7       	brne	.-4      	; 0x570 <LCD_WriteChar+0x36>
 574:	00 c0       	rjmp	.+0      	; 0x576 <LCD_WriteChar+0x3c>
 576:	00 00       	nop
 578:	40 e0       	ldi	r20, 0x00	; 0
 57a:	63 e0       	ldi	r22, 0x03	; 3
 57c:	81 e0       	ldi	r24, 0x01	; 1
 57e:	0e 94 c6 00 	call	0x18c	; 0x18c <DIO_WritePin>
 582:	c2 95       	swap	r28
 584:	c0 7f       	andi	r28, 0xF0	; 240
 586:	cb bb       	out	0x1b, r28	; 27
 588:	41 e0       	ldi	r20, 0x01	; 1
 58a:	63 e0       	ldi	r22, 0x03	; 3
 58c:	81 e0       	ldi	r24, 0x01	; 1
 58e:	0e 94 c6 00 	call	0x18c	; 0x18c <DIO_WritePin>
 592:	8f e9       	ldi	r24, 0x9F	; 159
 594:	9f e0       	ldi	r25, 0x0F	; 15
 596:	01 97       	sbiw	r24, 0x01	; 1
 598:	f1 f7       	brne	.-4      	; 0x596 <LCD_WriteChar+0x5c>
 59a:	00 c0       	rjmp	.+0      	; 0x59c <LCD_WriteChar+0x62>
 59c:	00 00       	nop
 59e:	40 e0       	ldi	r20, 0x00	; 0
 5a0:	63 e0       	ldi	r22, 0x03	; 3
 5a2:	81 e0       	ldi	r24, 0x01	; 1
 5a4:	0e 94 c6 00 	call	0x18c	; 0x18c <DIO_WritePin>
 5a8:	8f e1       	ldi	r24, 0x1F	; 31
 5aa:	9e e4       	ldi	r25, 0x4E	; 78
 5ac:	01 97       	sbiw	r24, 0x01	; 1
 5ae:	f1 f7       	brne	.-4      	; 0x5ac <LCD_WriteChar+0x72>
 5b0:	00 c0       	rjmp	.+0      	; 0x5b2 <LCD_WriteChar+0x78>
 5b2:	00 00       	nop
 5b4:	cf 91       	pop	r28
 5b6:	08 95       	ret

000005b8 <LCD_WriteString>:
 5b8:	0f 93       	push	r16
 5ba:	1f 93       	push	r17
 5bc:	cf 93       	push	r28
 5be:	8c 01       	movw	r16, r24
 5c0:	c0 e0       	ldi	r28, 0x00	; 0
 5c2:	f8 01       	movw	r30, r16
 5c4:	ec 0f       	add	r30, r28
 5c6:	f1 1d       	adc	r31, r1
 5c8:	80 81       	ld	r24, Z
 5ca:	88 23       	and	r24, r24
 5cc:	21 f0       	breq	.+8      	; 0x5d6 <LCD_WriteString+0x1e>
 5ce:	0e 94 9d 02 	call	0x53a	; 0x53a <LCD_WriteChar>
 5d2:	cf 5f       	subi	r28, 0xFF	; 255
 5d4:	f6 cf       	rjmp	.-20     	; 0x5c2 <LCD_WriteString+0xa>
 5d6:	cf 91       	pop	r28
 5d8:	1f 91       	pop	r17
 5da:	0f 91       	pop	r16
 5dc:	08 95       	ret

000005de <LCD_Clear>:
 5de:	81 e0       	ldi	r24, 0x01	; 1
 5e0:	0c 94 14 02 	jmp	0x428	; 0x428 <LCD_WriteCommand>

000005e4 <LCD_WriteInterger>:
 5e4:	ef 92       	push	r14
 5e6:	ff 92       	push	r15
 5e8:	0f 93       	push	r16
 5ea:	1f 93       	push	r17
 5ec:	cf 93       	push	r28
 5ee:	df 93       	push	r29
 5f0:	ec 01       	movw	r28, r24
 5f2:	97 ff       	sbrs	r25, 7
 5f4:	06 c0       	rjmp	.+12     	; 0x602 <LCD_WriteInterger+0x1e>
 5f6:	8d e2       	ldi	r24, 0x2D	; 45
 5f8:	0e 94 9d 02 	call	0x53a	; 0x53a <LCD_WriteChar>
 5fc:	d1 95       	neg	r29
 5fe:	c1 95       	neg	r28
 600:	d1 09       	sbc	r29, r1
 602:	01 e0       	ldi	r16, 0x01	; 1
 604:	10 e0       	ldi	r17, 0x00	; 0
 606:	2a e0       	ldi	r18, 0x0A	; 10
 608:	ea e0       	ldi	r30, 0x0A	; 10
 60a:	f0 e0       	ldi	r31, 0x00	; 0
 60c:	20 97       	sbiw	r28, 0x00	; 0
 60e:	71 f0       	breq	.+28     	; 0x62c <LCD_WriteInterger+0x48>
 610:	20 9f       	mul	r18, r16
 612:	70 01       	movw	r14, r0
 614:	21 9f       	mul	r18, r17
 616:	f0 0c       	add	r15, r0
 618:	11 24       	eor	r1, r1
 61a:	ce 01       	movw	r24, r28
 61c:	bf 01       	movw	r22, r30
 61e:	0e 94 92 03 	call	0x724	; 0x724 <__divmodhi4>
 622:	8c 01       	movw	r16, r24
 624:	0e 0d       	add	r16, r14
 626:	1f 1d       	adc	r17, r15
 628:	eb 01       	movw	r28, r22
 62a:	f0 cf       	rjmp	.-32     	; 0x60c <LCD_WriteInterger+0x28>
 62c:	c8 01       	movw	r24, r16
 62e:	6a e0       	ldi	r22, 0x0A	; 10
 630:	70 e0       	ldi	r23, 0x00	; 0
 632:	0e 94 92 03 	call	0x724	; 0x724 <__divmodhi4>
 636:	c0 e3       	ldi	r28, 0x30	; 48
 638:	c8 0f       	add	r28, r24
 63a:	01 30       	cpi	r16, 0x01	; 1
 63c:	11 05       	cpc	r17, r1
 63e:	21 f0       	breq	.+8      	; 0x648 <LCD_WriteInterger+0x64>
 640:	8c 2f       	mov	r24, r28
 642:	0e 94 9d 02 	call	0x53a	; 0x53a <LCD_WriteChar>
 646:	f9 cf       	rjmp	.-14     	; 0x63a <LCD_WriteInterger+0x56>
 648:	df 91       	pop	r29
 64a:	cf 91       	pop	r28
 64c:	1f 91       	pop	r17
 64e:	0f 91       	pop	r16
 650:	ff 90       	pop	r15
 652:	ef 90       	pop	r14
 654:	08 95       	ret

00000656 <main>:
 656:	cf 93       	push	r28
 658:	df 93       	push	r29
 65a:	cd b7       	in	r28, 0x3d	; 61
 65c:	de b7       	in	r29, 0x3e	; 62
 65e:	2b 97       	sbiw	r28, 0x0b	; 11
 660:	0f b6       	in	r0, 0x3f	; 63
 662:	f8 94       	cli
 664:	de bf       	out	0x3e, r29	; 62
 666:	0f be       	out	0x3f, r0	; 63
 668:	cd bf       	out	0x3d, r28	; 61
 66a:	85 e0       	ldi	r24, 0x05	; 5
 66c:	e6 e8       	ldi	r30, 0x86	; 134
 66e:	f0 e0       	ldi	r31, 0x00	; 0
 670:	de 01       	movw	r26, r28
 672:	16 96       	adiw	r26, 0x06	; 6
 674:	01 90       	ld	r0, Z+
 676:	0d 92       	st	X+, r0
 678:	8a 95       	dec	r24
 67a:	e1 f7       	brne	.-8      	; 0x674 <main+0x1e>
 67c:	1b 86       	std	Y+11, r1	; 0x0b
 67e:	0e 94 5c 02 	call	0x4b8	; 0x4b8 <LCD_Init>
 682:	0e 94 74 01 	call	0x2e8	; 0x2e8 <KeyPad_Init>
 686:	0e 94 8e 03 	call	0x71c	; 0x71c <Temp_Sensor_Init>
 68a:	7e 01       	movw	r14, r28
 68c:	25 e0       	ldi	r18, 0x05	; 5
 68e:	e2 0e       	add	r14, r18
 690:	f1 1c       	adc	r15, r1
 692:	8e 01       	movw	r16, r28
 694:	0f 5f       	subi	r16, 0xFF	; 255
 696:	1f 4f       	sbci	r17, 0xFF	; 255
 698:	0e 94 c0 01 	call	0x380	; 0x380 <KeyPad_GetValue>
 69c:	80 5d       	subi	r24, 0xD0	; 208
 69e:	f8 01       	movw	r30, r16
 6a0:	81 93       	st	Z+, r24
 6a2:	8f 01       	movw	r16, r30
 6a4:	ff ef       	ldi	r31, 0xFF	; 255
 6a6:	29 e6       	ldi	r18, 0x69	; 105
 6a8:	88 e1       	ldi	r24, 0x18	; 24
 6aa:	f1 50       	subi	r31, 0x01	; 1
 6ac:	20 40       	sbci	r18, 0x00	; 0
 6ae:	80 40       	sbci	r24, 0x00	; 0
 6b0:	e1 f7       	brne	.-8      	; 0x6aa <main+0x54>
 6b2:	00 c0       	rjmp	.+0      	; 0x6b4 <main+0x5e>
 6b4:	00 00       	nop
 6b6:	0e 15       	cp	r16, r14
 6b8:	1f 05       	cpc	r17, r15
 6ba:	71 f7       	brne	.-36     	; 0x698 <main+0x42>
 6bc:	9f ef       	ldi	r25, 0xFF	; 255
 6be:	e5 ea       	ldi	r30, 0xA5	; 165
 6c0:	fe e0       	ldi	r31, 0x0E	; 14
 6c2:	91 50       	subi	r25, 0x01	; 1
 6c4:	e0 40       	sbci	r30, 0x00	; 0
 6c6:	f0 40       	sbci	r31, 0x00	; 0
 6c8:	e1 f7       	brne	.-8      	; 0x6c2 <main+0x6c>
 6ca:	00 c0       	rjmp	.+0      	; 0x6cc <main+0x76>
 6cc:	00 00       	nop
 6ce:	1d 82       	std	Y+5, r1	; 0x05
 6d0:	be 01       	movw	r22, r28
 6d2:	6f 5f       	subi	r22, 0xFF	; 255
 6d4:	7f 4f       	sbci	r23, 0xFF	; 255
 6d6:	ce 01       	movw	r24, r28
 6d8:	06 96       	adiw	r24, 0x06	; 6
 6da:	0e 94 ba 03 	call	0x774	; 0x774 <strcmp>
 6de:	89 2b       	or	r24, r25
 6e0:	c1 f4       	brne	.+48     	; 0x712 <main+0xbc>
 6e2:	ce 01       	movw	r24, r28
 6e4:	0b 96       	adiw	r24, 0x0b	; 11
 6e6:	0e 94 90 03 	call	0x720	; 0x720 <Temp_Sensor_GetValue>
 6ea:	80 e7       	ldi	r24, 0x70	; 112
 6ec:	90 e0       	ldi	r25, 0x00	; 0
 6ee:	0e 94 dc 02 	call	0x5b8	; 0x5b8 <LCD_WriteString>
 6f2:	2f ef       	ldi	r18, 0xFF	; 255
 6f4:	89 e6       	ldi	r24, 0x69	; 105
 6f6:	98 e1       	ldi	r25, 0x18	; 24
 6f8:	21 50       	subi	r18, 0x01	; 1
 6fa:	80 40       	sbci	r24, 0x00	; 0
 6fc:	90 40       	sbci	r25, 0x00	; 0
 6fe:	e1 f7       	brne	.-8      	; 0x6f8 <main+0xa2>
 700:	00 c0       	rjmp	.+0      	; 0x702 <main+0xac>
 702:	00 00       	nop
 704:	0e 94 ef 02 	call	0x5de	; 0x5de <LCD_Clear>
 708:	8b 85       	ldd	r24, Y+11	; 0x0b
 70a:	90 e0       	ldi	r25, 0x00	; 0
 70c:	0e 94 f2 02 	call	0x5e4	; 0x5e4 <LCD_WriteInterger>
 710:	c0 cf       	rjmp	.-128    	; 0x692 <main+0x3c>
 712:	87 e7       	ldi	r24, 0x77	; 119
 714:	90 e0       	ldi	r25, 0x00	; 0
 716:	0e 94 dc 02 	call	0x5b8	; 0x5b8 <LCD_WriteString>
 71a:	bb cf       	rjmp	.-138    	; 0x692 <main+0x3c>

0000071c <Temp_Sensor_Init>:
 71c:	0c 94 41 00 	jmp	0x82	; 0x82 <ADC_Init>

00000720 <Temp_Sensor_GetValue>:
 720:	0c 94 4c 00 	jmp	0x98	; 0x98 <ADC_Read>

00000724 <__divmodhi4>:
 724:	97 fb       	bst	r25, 7
 726:	07 2e       	mov	r0, r23
 728:	16 f4       	brtc	.+4      	; 0x72e <__divmodhi4+0xa>
 72a:	00 94       	com	r0
 72c:	07 d0       	rcall	.+14     	; 0x73c <__divmodhi4_neg1>
 72e:	77 fd       	sbrc	r23, 7
 730:	09 d0       	rcall	.+18     	; 0x744 <__divmodhi4_neg2>
 732:	0e 94 a6 03 	call	0x74c	; 0x74c <__udivmodhi4>
 736:	07 fc       	sbrc	r0, 7
 738:	05 d0       	rcall	.+10     	; 0x744 <__divmodhi4_neg2>
 73a:	3e f4       	brtc	.+14     	; 0x74a <__divmodhi4_exit>

0000073c <__divmodhi4_neg1>:
 73c:	90 95       	com	r25
 73e:	81 95       	neg	r24
 740:	9f 4f       	sbci	r25, 0xFF	; 255
 742:	08 95       	ret

00000744 <__divmodhi4_neg2>:
 744:	70 95       	com	r23
 746:	61 95       	neg	r22
 748:	7f 4f       	sbci	r23, 0xFF	; 255

0000074a <__divmodhi4_exit>:
 74a:	08 95       	ret

0000074c <__udivmodhi4>:
 74c:	aa 1b       	sub	r26, r26
 74e:	bb 1b       	sub	r27, r27
 750:	51 e1       	ldi	r21, 0x11	; 17
 752:	07 c0       	rjmp	.+14     	; 0x762 <__udivmodhi4_ep>

00000754 <__udivmodhi4_loop>:
 754:	aa 1f       	adc	r26, r26
 756:	bb 1f       	adc	r27, r27
 758:	a6 17       	cp	r26, r22
 75a:	b7 07       	cpc	r27, r23
 75c:	10 f0       	brcs	.+4      	; 0x762 <__udivmodhi4_ep>
 75e:	a6 1b       	sub	r26, r22
 760:	b7 0b       	sbc	r27, r23

00000762 <__udivmodhi4_ep>:
 762:	88 1f       	adc	r24, r24
 764:	99 1f       	adc	r25, r25
 766:	5a 95       	dec	r21
 768:	a9 f7       	brne	.-22     	; 0x754 <__udivmodhi4_loop>
 76a:	80 95       	com	r24
 76c:	90 95       	com	r25
 76e:	bc 01       	movw	r22, r24
 770:	cd 01       	movw	r24, r26
 772:	08 95       	ret

00000774 <strcmp>:
 774:	fb 01       	movw	r30, r22
 776:	dc 01       	movw	r26, r24
 778:	8d 91       	ld	r24, X+
 77a:	01 90       	ld	r0, Z+
 77c:	80 19       	sub	r24, r0
 77e:	01 10       	cpse	r0, r1
 780:	d9 f3       	breq	.-10     	; 0x778 <strcmp+0x4>
 782:	99 0b       	sbc	r25, r25
 784:	08 95       	ret

00000786 <_exit>:
 786:	f8 94       	cli

00000788 <__stop_program>:
 788:	ff cf       	rjmp	.-2      	; 0x788 <__stop_program>
